; Function Attrs: nounwind uwtable
define i32 @nk_button_image(ptr noundef captures(address_is_null) %0, ptr noundef readonly byval(%struct.nk_image) align 8 captures(none) %1) local_unnamed_addr #18 {
  %.not = icmp eq ptr %0, null
  br i1 %.not, label %6, label %3

3:                                                ; preds = %2
  %4 = getelementptr inbounds nuw i8, ptr %0, i64 464
  %5 = tail call i32 @nk_button_image_styled(ptr noundef nonnull %0, ptr noundef nonnull %4, ptr noundef nonnull byval(%struct.nk_image) align 8 %1)
  br label %6

6:                                                ; preds = %2, %3
  %.0 = phi i32 [ %5, %3 ], [ 0, %2 ]
  ret i32 %.0
}